; Function Attrs: nounwind uwtable
define dso_local void @pq_copymsgbytes(ptr noundef captures(none) %0, ptr noundef writeonly captures(none) %1, i32 noundef %2) local_unnamed_addr #0 {
  %4 = icmp slt i32 %2, 0
  br i1 %4, label %12, label %5

5:                                                ; preds = %3
  %6 = getelementptr inbounds nuw i8, ptr %0, i64 8
  %7 = load i32, ptr %6, align 8
  %8 = getelementptr inbounds nuw i8, ptr %0, i64 16
  %9 = load i32, ptr %8, align 8
  %10 = sub i32 %7, %9
  %11 = icmp sgt i32 %2, %10
  br i1 %11, label %12, label %16

12:                                               ; preds = %5, %3
  %13 = tail call zeroext i1 @errstart_cold(i32 noundef 21, ptr noundef null) #11
  tail call void @llvm.assume(i1 %13)
  %14 = tail call i32 @errcode(i32 noundef 16908800) #9
  %15 = tail call i32 (ptr, ...) @errmsg(ptr noundef nonnull @.str.3) #9
  tail call void @errfinish(ptr noundef nonnull @.str.1, i32 noundef 533, ptr noundef nonnull @__func__.pq_copymsgbytes) #9
  unreachable

16:                                               ; preds = %5
  %17 = load ptr, ptr %0, align 8
  %18 = sext i32 %9 to i64
  %19 = getelementptr inbounds i8, ptr %17, i64 %18
  %20 = zext nneg i32 %2 to i64
  tail call void @llvm.memcpy.p0.p0.i64(ptr align 1 %1, ptr align 1 %19, i64 %20, i1 false)
  %21 = load i32, ptr %8, align 8
  %22 = add i32 %21, %2
  store i32 %22, ptr %8, align 8
  ret void
}